; Function Attrs: mustprogress nounwind willreturn uwtable
define void @cli_events_free(ptr noundef %0) local_unnamed_addr #4 {
  %.not = icmp eq ptr %0, null
  br i1 %.not, label %4, label %2

2:                                                ; preds = %1
  %3 = load ptr, ptr %0, align 8, !tbaa !13
  tail call void @free(ptr noundef %3) #14
  tail call void @free(ptr noundef nonnull %0) #14
  br label %4

4:                                                ; preds = %2, %1
  ret void
}